(lp0
(lp1
S''
p2
ag2
ag2
ag2
ag2
ag2
ag2
ag2
ag2
ag2
ag2
ag2
ag2
ag2
ag2
ag2
ag2
ag2
ag2
ag2
ag2
ag2
ag2
ag2
ag2
ag2
ag2
ag2
aa(lp3
g2
ag2
ag2
ag2
ag2
ag2
ag2
ag2
ag2
ag2
ag2
ag2
ag2
ag2
ag2
ag2
ag2
ag2
ag2
ag2
ag2
ag2
ag2
ag2
ag2
ag2
ag2
ag2
aa(lp4
g2
ag2
ag2
ag2
ag2
ag2
ag2
ag2
ag2
ag2
ag2
ag2
ag2
ag2
ag2
ag2
ag2
ag2
ag2
ag2
ag2
ag2
ag2
ag2
ag2
ag2
ag2
ag2
aa(lp5
S'Wall'
p6
ag6
ag6
ag6
ag6
ag6
ag6
ag6
ag6
ag6
ag6
ag6
ag6
ag6
ag6
ag6
ag6
ag6
ag6
ag6
ag6
ag6
ag6
ag6
ag6
ag6
ag6
ag6
aa(lp7
g6
aS'Dot'
p8
ag8
ag8
ag8
ag8
ag8
ag8
ag8
ag8
ag8
ag8
ag8
ag6
ag6
ag8
ag8
ag8
ag8
ag8
ag8
ag8
ag8
ag8
ag8
ag8
ag8
ag6
aa(lp9
g6
ag8
ag6
ag6
ag6
ag6
ag8
ag6
ag6
ag6
ag6
ag6
ag8
ag6
ag6
ag8
ag6
ag6
ag6
ag6
ag6
ag8
ag6
ag6
ag6
ag6
ag8
ag6
aa(lp10
g6
aS'Energizer'
p11
ag6
ag6
ag6
ag6
ag8
ag6
ag6
ag6
ag6
ag6
ag8
ag6
ag6
ag8
ag6
ag6
ag6
ag6
ag6
ag8
ag6
ag6
ag6
ag6
ag11
ag6
aa(lp12
g6
ag8
ag6
ag6
ag6
ag6
ag8
ag6
ag6
ag6
ag6
ag6
ag8
ag6
ag6
ag8
ag6
ag6
ag6
ag6
ag6
ag8
ag6
ag6
ag6
ag6
ag8
ag6
aa(lp13
g6
ag8
ag8
ag8
ag8
ag8
ag8
ag8
ag8
ag8
ag8
ag8
ag8
ag8
ag8
ag8
ag8
ag8
ag8
ag8
ag8
ag8
ag8
ag8
ag8
ag8
ag8
ag6
aa(lp14
g6
ag8
ag6
ag6
ag6
ag6
ag8
ag6
ag6
ag8
ag6
ag6
ag6
ag6
ag6
ag6
ag6
ag6
ag8
ag6
ag6
ag8
ag6
ag6
ag6
ag6
ag8
ag6
aa(lp15
g6
ag8
ag6
ag6
ag6
ag6
ag8
ag6
ag6
ag8
ag6
ag6
ag6
ag6
ag6
ag6
ag6
ag6
ag8
ag6
ag6
ag8
ag6
ag6
ag6
ag6
ag8
ag6
aa(lp16
g6
ag8
ag8
ag8
ag8
ag8
ag8
ag6
ag6
ag8
ag8
ag8
ag8
ag6
ag6
ag8
ag8
ag8
ag8
ag6
ag6
ag8
ag8
ag8
ag8
ag8
ag8
ag6
aa(lp17
g6
ag6
ag6
ag6
ag6
ag6
ag8
ag6
ag6
ag6
ag6
ag6
ag2
ag6
ag6
ag2
ag6
ag6
ag6
ag6
ag6
ag8
ag6
ag6
ag6
ag6
ag6
ag6
aa(lp18
g6
ag6
ag6
ag6
ag6
ag6
ag8
ag6
ag6
ag6
ag6
ag6
ag2
ag6
ag6
ag2
ag6
ag6
ag6
ag6
ag6
ag8
ag6
ag6
ag6
ag6
ag6
ag6
aa(lp19
g6
ag6
ag6
ag6
ag6
ag6
ag8
ag6
ag6
ag2
ag2
ag2
ag2
ag2
ag2
ag2
ag2
ag2
ag2
ag6
ag6
ag8
ag6
ag6
ag6
ag6
ag6
ag6
aa(lp20
g6
ag6
ag6
ag6
ag6
ag6
ag8
ag6
ag6
ag2
ag6
ag6
ag6
ag6
ag6
ag6
ag6
ag6
ag2
ag6
ag6
ag8
ag6
ag6
ag6
ag6
ag6
ag6
aa(lp21
g6
ag6
ag6
ag6
ag6
ag6
ag8
ag6
ag6
ag2
ag6
ag2
ag2
ag2
ag2
ag2
ag2
ag6
ag2
ag6
ag6
ag8
ag6
ag6
ag6
ag6
ag6
ag6
aa(lp22
g2
ag2
ag2
ag2
ag2
ag2
ag8
ag2
ag2
ag2
ag6
ag2
ag2
ag2
ag2
ag2
ag2
ag6
ag2
ag2
ag2
ag8
ag2
ag2
ag2
ag2
ag2
ag2
aa(lp23
g6
ag6
ag6
ag6
ag6
ag6
ag8
ag6
ag6
ag2
ag6
ag2
ag2
ag2
ag2
ag2
ag2
ag6
ag2
ag6
ag6
ag8
ag6
ag6
ag6
ag6
ag6
ag6
aa(lp24
g6
ag6
ag6
ag6
ag6
ag6
ag8
ag6
ag6
ag2
ag6
ag6
ag6
ag6
ag6
ag6
ag6
ag6
ag2
ag6
ag6
ag8
ag6
ag6
ag6
ag6
ag6
ag6
aa(lp25
g6
ag6
ag6
ag6
ag6
ag6
ag8
ag6
ag6
ag2
ag2
ag2
ag2
ag2
ag2
ag2
ag2
ag2
ag2
ag6
ag6
ag8
ag6
ag6
ag6
ag6
ag6
ag6
aa(lp26
g6
ag6
ag6
ag6
ag6
ag6
ag8
ag6
ag6
ag2
ag6
ag6
ag6
ag6
ag6
ag6
ag6
ag6
ag2
ag6
ag6
ag8
ag6
ag6
ag6
ag6
ag6
ag6
aa(lp27
g6
ag6
ag6
ag6
ag6
ag6
ag8
ag6
ag6
ag2
ag6
ag6
ag6
ag6
ag6
ag6
ag6
ag6
ag2
ag6
ag6
ag8
ag6
ag6
ag6
ag6
ag6
ag6
aa(lp28
g6
ag8
ag8
ag8
ag8
ag8
ag8
ag8
ag8
ag8
ag8
ag8
ag8
ag6
ag6
ag8
ag8
ag8
ag8
ag8
ag8
ag8
ag8
ag8
ag8
ag8
ag8
ag6
aa(lp29
g6
ag8
ag6
ag6
ag6
ag6
ag8
ag6
ag6
ag6
ag6
ag6
ag8
ag6
ag6
ag8
ag6
ag6
ag6
ag6
ag6
ag8
ag6
ag6
ag6
ag6
ag8
ag6
aa(lp30
g6
ag8
ag6
ag6
ag6
ag6
ag8
ag6
ag6
ag6
ag6
ag6
ag8
ag6
ag6
ag8
ag6
ag6
ag6
ag6
ag6
ag8
ag6
ag6
ag6
ag6
ag8
ag6
aa(lp31
g6
ag11
ag8
ag8
ag6
ag6
ag8
ag8
ag8
ag8
ag8
ag8
ag8
ag8
ag8
ag8
ag8
ag8
ag8
ag8
ag8
ag8
ag6
ag6
ag8
ag8
ag11
ag6
aa(lp32
g6
ag6
ag6
ag8
ag6
ag6
ag8
ag6
ag6
ag8
ag6
ag6
ag6
ag6
ag6
ag6
ag6
ag6
ag8
ag6
ag6
ag8
ag6
ag6
ag8
ag6
ag6
ag6
aa(lp33
g6
ag6
ag6
ag8
ag6
ag6
ag8
ag6
ag6
ag8
ag6
ag6
ag6
ag6
ag6
ag6
ag6
ag6
ag8
ag6
ag6
ag8
ag6
ag6
ag8
ag6
ag6
ag6
aa(lp34
g6
ag8
ag8
ag8
ag8
ag8
ag8
ag6
ag6
ag8
ag8
ag8
ag8
ag6
ag6
ag8
ag8
ag8
ag8
ag6
ag6
ag8
ag8
ag8
ag8
ag8
ag8
ag6
aa(lp35
g6
ag8
ag6
ag6
ag6
ag6
ag6
ag6
ag6
ag6
ag6
ag6
ag8
ag6
ag6
ag8
ag6
ag6
ag6
ag6
ag6
ag6
ag6
ag6
ag6
ag6
ag8
ag6
aa(lp36
g6
ag8
ag6
ag6
ag6
ag6
ag6
ag6
ag6
ag6
ag6
ag6
ag8
ag6
ag6
ag8
ag6
ag6
ag6
ag6
ag6
ag6
ag6
ag6
ag6
ag6
ag8
ag6
aa(lp37
g6
ag8
ag8
ag8
ag8
ag8
ag8
ag8
ag8
ag8
ag8
ag8
ag8
ag8
ag8
ag8
ag8
ag8
ag8
ag8
ag8
ag8
ag8
ag8
ag8
ag8
ag8
ag6
aa(lp38
g6
ag6
ag6
ag6
ag6
ag6
ag6
ag6
ag6
ag6
ag6
ag6
ag6
ag6
ag6
ag6
ag6
ag6
ag6
ag6
ag6
ag6
ag6
ag6
ag6
ag6
ag6
ag6
aa(lp39
g2
ag2
ag2
ag2
ag2
ag2
ag2
ag2
ag2
ag2
ag2
ag2
ag2
ag2
ag2
ag2
ag2
ag2
ag2
ag2
ag2
ag2
ag2
ag2
ag2
ag2
ag2
ag2
aa(lp40
g2
ag2
ag2
ag2
ag2
ag2
ag2
ag2
ag2
ag2
ag2
ag2
ag2
ag2
ag2
ag2
ag2
ag2
ag2
ag2
ag2
ag2
ag2
ag2
ag2
ag2
ag2
ag2
aa.